target datalayout = "e-m:e-p270:32:32-p271:32:32-p272:64:64-i64:64-i128:128-f80:128-n8:16:32:64-S128"
target triple = "x86_64-pc-linux-gnu"

%struct.H5B_class_t = type { i32, i64, ptr, ptr, ptr, ptr, ptr, ptr, i8, i8, i32, ptr, ptr, ptr, ptr }
%struct.H5O_stab_t = type { i64, i64 }
%struct.H5O_loc_t = type { ptr, i64, i8 }

@H5B_SNODE = external global [1 x %struct.H5B_class_t], align 16
@.str = private unnamed_addr constant [101 x i8] c"generated/home/dtcxzyw/WorkSpace/Projects/compilers/llvm-opt-benchmark/bench/hdf5/hdf5/src/H5Gstab.c\00", align 1
@H5E_SYM_g = external global i64, align 8
@H5E_CANTINIT_g = external global i64, align 8
@H5E_NOTFOUND_g = external global i64, align 8
@.str.16 = private unnamed_addr constant [39 x i8] c"unable to determine local heap address\00", align 1
@.str.17 = private unnamed_addr constant [26 x i8] c"iteration operator failed\00", align 1
@__func__.H5G__stab_count = private unnamed_addr constant [16 x i8] c"H5G__stab_count\00", align 1

; Function Attrs: nounwind uwtable
define i32 @H5G__stab_count(ptr noundef %0, ptr noundef %1) #0 {
  %3 = alloca ptr, align 8
  %4 = alloca ptr, align 8
  %5 = alloca %struct.H5O_stab_t, align 8
  %6 = alloca i32, align 4
  %7 = alloca i64, align 8
  %8 = alloca i8, align 1
  store ptr %0, ptr %3, align 8
  store ptr %1, ptr %4, align 8
  store i32 0, ptr %6, align 4
  store i64 -1, ptr %7, align 8
  store i8 0, ptr %8, align 1
  %9 = load ptr, ptr %3, align 8
  %10 = getelementptr inbounds %struct.H5O_loc_t, ptr %9, i32 0, i32 1
  %11 = load i64, ptr %10, align 8
  call void @H5AC_tag(i64 noundef %11, ptr noundef %7)
  %12 = load ptr, ptr %4, align 8
  store i64 0, ptr %12, align 8
  %13 = load ptr, ptr %3, align 8
  %14 = call ptr @H5O_msg_read(ptr noundef %13, i32 noundef 17, ptr noundef %5)
  %15 = icmp eq ptr null, %14
  br i1 %15, label %16, label %31

16:                                               ; preds = %2
  br label %17

17:                                               ; preds = %16
  br label %18

18:                                               ; preds = %17
  br label %19

19:                                               ; preds = %18
  %20 = load i64, ptr @H5E_SYM_g, align 8
  %21 = load i64, ptr @H5E_NOTFOUND_g, align 8
  %22 = call i32 (ptr, ptr, i32, i64, i64, ptr, ...) @H5E_printf_stack(ptr noundef @.str, ptr noundef @__func__.H5G__stab_count, i32 noundef 573, i64 noundef %20, i64 noundef %21, ptr noundef @.str.16)
  br label %23

23:                                               ; preds = %19
  store i8 1, ptr %8, align 1
  %24 = load i8, ptr %8, align 1
  %25 = trunc i8 %24 to i1
  %26 = zext i1 %25 to i8
  store i8 %26, ptr %8, align 1
  br label %27

27:                                               ; preds = %23
  br label %28

28:                                               ; preds = %27
  store i32 -1, ptr %6, align 4
  br label %56

29:                                               ; No predecessors!
  br label %30

30:                                               ; preds = %29
  br label %31

31:                                               ; preds = %30, %2
  %32 = load ptr, ptr %3, align 8
  %33 = getelementptr inbounds %struct.H5O_loc_t, ptr %32, i32 0, i32 0
  %34 = load ptr, ptr %33, align 8
  %35 = getelementptr inbounds %struct.H5O_stab_t, ptr %5, i32 0, i32 0
  %36 = load i64, ptr %35, align 8
  %37 = load ptr, ptr %4, align 8
  %38 = call i32 @H5B_iterate(ptr noundef %34, ptr noundef @H5B_SNODE, i64 noundef %36, ptr noundef @H5G__node_sumup, ptr noundef %37)
  %39 = icmp slt i32 %38, 0
  br i1 %39, label %40, label %55

40:                                               ; preds = %31
  br label %41

41:                                               ; preds = %40
  br label %42

42:                                               ; preds = %41
  br label %43

43:                                               ; preds = %42
  %44 = load i64, ptr @H5E_SYM_g, align 8
  %45 = load i64, ptr @H5E_CANTINIT_g, align 8
  %46 = call i32 (ptr, ptr, i32, i64, i64, ptr, ...) @H5E_printf_stack(ptr noundef @.str, ptr noundef @__func__.H5G__stab_count, i32 noundef 577, i64 noundef %44, i64 noundef %45, ptr noundef @.str.17)
  br label %47

47:                                               ; preds = %43
  store i8 1, ptr %8, align 1
  %48 = load i8, ptr %8, align 1
  %49 = trunc i8 %48 to i1
  %50 = zext i1 %49 to i8
  store i8 %50, ptr %8, align 1
  br label %51

51:                                               ; preds = %47
  br label %52

52:                                               ; preds = %51
  store i32 -1, ptr %6, align 4
  br label %56

53:                                               ; No predecessors!
  br label %54

54:                                               ; preds = %53
  br label %55

55:                                               ; preds = %54, %31
  br label %56

56:                                               ; preds = %55, %52, %28
  %57 = load i64, ptr %7, align 8
  call void @H5AC_tag(i64 noundef %57, ptr noundef null)
  %58 = load i32, ptr %6, align 4
  ret i32 %58
}