; Function Attrs: nounwind uwtable
define range(i32 -1, 1) i32 @H5G__stab_count(ptr noundef %0, ptr noundef %1) local_unnamed_addr #0 {
  %3 = alloca %struct.H5O_stab_t, align 8
  %4 = alloca i64, align 8
  store i64 -1, ptr %4, align 8
  %5 = getelementptr inbounds i8, ptr %0, i64 8
  %6 = load i64, ptr %5, align 8
  call void @H5AC_tag(i64 noundef %6, ptr noundef nonnull %4) #6
  store i64 0, ptr %1, align 8
  %7 = call ptr @H5O_msg_read(ptr noundef %0, i32 noundef 17, ptr noundef nonnull %3) #6
  %8 = icmp eq ptr %7, null
  br i1 %8, label %9, label %13

9:                                                ; preds = %2
  %10 = load i64, ptr @H5E_SYM_g, align 8
  %11 = load i64, ptr @H5E_NOTFOUND_g, align 8
  %12 = call i32 (ptr, ptr, i32, i64, i64, ptr, ...) @H5E_printf_stack(ptr noundef nonnull @.str, ptr noundef nonnull @__func__.H5G__stab_count, i32 noundef 573, i64 noundef %10, i64 noundef %11, ptr noundef nonnull @.str.16) #6
  br label %22

13:                                               ; preds = %2
  %14 = load ptr, ptr %0, align 8
  %15 = load i64, ptr %3, align 8
  %16 = call i32 @H5B_iterate(ptr noundef %14, ptr noundef nonnull @H5B_SNODE, i64 noundef %15, ptr noundef nonnull @H5G__node_sumup, ptr noundef nonnull %1) #6
  %17 = icmp slt i32 %16, 0
  br i1 %17, label %18, label %22

18:                                               ; preds = %13
  %19 = load i64, ptr @H5E_SYM_g, align 8
  %20 = load i64, ptr @H5E_CANTINIT_g, align 8
  %21 = call i32 (ptr, ptr, i32, i64, i64, ptr, ...) @H5E_printf_stack(ptr noundef nonnull @.str, ptr noundef nonnull @__func__.H5G__stab_count, i32 noundef 577, i64 noundef %19, i64 noundef %20, ptr noundef nonnull @.str.17) #6
  br label %22

22:                                               ; preds = %13, %18, %9
  %.0 = phi i32 [ -1, %9 ], [ -1, %18 ], [ 0, %13 ]
  %23 = load i64, ptr %4, align 8
  call void @H5AC_tag(i64 noundef %23, ptr noundef null) #6
  ret i32 %.0
}